; Function Attrs: nofree norecurse nosync nounwind memory(readwrite, inaccessiblemem: none) uwtable
define void @ff_slice_buffer_flush(ptr noundef captures(none) %0) local_unnamed_addr #5 {
  %2 = load ptr, ptr %0, align 8, !tbaa !16
  %.not = icmp eq ptr %2, null
  br i1 %.not, label %.loopexit, label %.preheader

.preheader:                                       ; preds = %1
  %3 = getelementptr inbounds nuw i8, ptr %0, i64 20
  %4 = load i32, ptr %3, align 4, !tbaa !13
  %5 = icmp sgt i32 %4, 0
  br i1 %5, label %.lr.ph, label %.loopexit

.lr.ph:                                           ; preds = %.preheader
  %6 = getelementptr inbounds nuw i8, ptr %0, i64 16
  %7 = getelementptr inbounds nuw i8, ptr %0, i64 8
  %wide.trip.count = zext nneg i32 %4 to i64
  br label %8

8:                                                ; preds = %.lr.ph, %17
  %indvars.iv = phi i64 [ 0, %.lr.ph ], [ %indvars.iv.next, %17 ]
  %9 = getelementptr inbounds nuw ptr, ptr %2, i64 %indvars.iv
  %10 = load ptr, ptr %9, align 8, !tbaa !18
  %.not7 = icmp eq ptr %10, null
  br i1 %.not7, label %17, label %11

11:                                               ; preds = %8
  %12 = load i32, ptr %6, align 8, !tbaa !22
  %13 = add nsw i32 %12, 1
  store i32 %13, ptr %6, align 8, !tbaa !22
  %14 = load ptr, ptr %7, align 8, !tbaa !17
  %15 = sext i32 %13 to i64
  %16 = getelementptr inbounds ptr, ptr %14, i64 %15
  store ptr %10, ptr %16, align 8, !tbaa !18
  store ptr null, ptr %9, align 8, !tbaa !18
  br label %17

17:                                               ; preds = %8, %11
  %indvars.iv.next = add nuw nsw i64 %indvars.iv, 1
  %exitcond.not = icmp eq i64 %indvars.iv.next, %wide.trip.count
  br i1 %exitcond.not, label %.loopexit, label %8, !llvm.loop !23

.loopexit:                                        ; preds = %17, %.preheader, %1
  ret void
}